target datalayout = "e-m:e-p270:32:32-p271:32:32-p272:64:64-i64:64-i128:128-f80:128-n8:16:32:64-S128"
target triple = "x86_64-pc-linux-gnu"

%struct._mate_config = type { ptr, i32, ptr, i32, ptr, ptr, ptr, ptr, ptr, ptr, ptr, ptr, ptr, ptr, i32, ptr, %struct._mate_cfg_defaults, i32, i32, i32, i32, ptr, ptr }
%struct._mate_cfg_defaults = type { %struct._pdu_defaults, %struct._gop_defaults, %struct._gog_defaults }
%struct._pdu_defaults = type { i32, i32, i8, i8, i8 }
%struct._gop_defaults = type { double, double, double, i32, i8, i8 }
%struct._gog_defaults = type { double, i8, i32 }
%struct._mate_cfg_gog = type { ptr, ptr, i32, ptr, ptr, ptr, double, i32, i8, ptr, i32, i32, i32, i32, i32, i32, i32, i32, i32, i32, i32, i32, i32 }

@.str = private unnamed_addr constant [6 x i8] c"extra\00", align 1

; Function Attrs: null_pointer_is_valid sspstrong uwtable
define hidden ptr @new_gogcfg(ptr noundef %0, ptr noundef %1) #0 {
  %3 = alloca ptr, align 8
  %4 = alloca ptr, align 8
  %5 = alloca ptr, align 8
  %6 = alloca i64, align 8
  %7 = alloca i64, align 8
  %8 = alloca ptr, align 8
  %9 = alloca ptr, align 8
  store ptr %0, ptr %3, align 8
  store ptr %1, ptr %4, align 8
  call void @llvm.lifetime.start.p0(i64 8, ptr %5) #14
  call void @llvm.lifetime.start.p0(i64 8, ptr %6) #14
  store i64 1, ptr %6, align 8
  call void @llvm.lifetime.start.p0(i64 8, ptr %7) #14
  store i64 128, ptr %7, align 8
  call void @llvm.lifetime.start.p0(i64 8, ptr %8) #14
  %10 = load i64, ptr %7, align 8
  %11 = icmp eq i64 %10, 1
  br i1 %11, label %12, label %15

12:                                               ; preds = %2
  %13 = load i64, ptr %6, align 8
  %14 = call noalias ptr @g_malloc(i64 noundef %13) #15
  store ptr %14, ptr %8, align 8
  br label %36

15:                                               ; preds = %2
  %16 = load i64, ptr %6, align 8
  %17 = call i1 @llvm.is.constant.i64(i64 %16)
  br i1 %17, label %18, label %31

18:                                               ; preds = %15
  %19 = load i64, ptr %7, align 8
  %20 = icmp eq i64 %19, 0
  br i1 %20, label %26, label %21

21:                                               ; preds = %18
  %22 = load i64, ptr %6, align 8
  %23 = load i64, ptr %7, align 8
  %24 = udiv i64 -1, %23
  %25 = icmp ule i64 %22, %24
  br i1 %25, label %26, label %31

26:                                               ; preds = %21, %18
  %27 = load i64, ptr %6, align 8
  %28 = load i64, ptr %7, align 8
  %29 = mul i64 %27, %28
  %30 = call noalias ptr @g_malloc(i64 noundef %29) #15
  store ptr %30, ptr %8, align 8
  br label %35

31:                                               ; preds = %21, %15
  %32 = load i64, ptr %6, align 8
  %33 = load i64, ptr %7, align 8
  %34 = call noalias ptr @g_malloc_n(i64 noundef %32, i64 noundef %33) #16
  store ptr %34, ptr %8, align 8
  br label %35

35:                                               ; preds = %31, %26
  br label %36

36:                                               ; preds = %35, %12
  %37 = load ptr, ptr %8, align 8
  store ptr %37, ptr %9, align 8
  call void @llvm.lifetime.end.p0(i64 8, ptr %8) #14
  call void @llvm.lifetime.end.p0(i64 8, ptr %7) #14
  call void @llvm.lifetime.end.p0(i64 8, ptr %6) #14
  %38 = load ptr, ptr %9, align 8
  store ptr %38, ptr %5, align 8
  %39 = load ptr, ptr %4, align 8
  %40 = call noalias ptr @g_strdup(ptr noundef %39)
  %41 = load ptr, ptr %5, align 8
  %42 = getelementptr inbounds nuw %struct._mate_cfg_gog, ptr %41, i32 0, i32 0
  store ptr %40, ptr %42, align 8
  %43 = load ptr, ptr %5, align 8
  %44 = getelementptr inbounds nuw %struct._mate_cfg_gog, ptr %43, i32 0, i32 2
  store i32 0, ptr %44, align 8
  %45 = call ptr @g_hash_table_new(ptr noundef @g_direct_hash, ptr noundef @g_direct_equal)
  %46 = load ptr, ptr %5, align 8
  %47 = getelementptr inbounds nuw %struct._mate_cfg_gog, ptr %46, i32 0, i32 1
  store ptr %45, ptr %47, align 8
  %48 = load ptr, ptr %5, align 8
  %49 = getelementptr inbounds nuw %struct._mate_cfg_gog, ptr %48, i32 0, i32 3
  store ptr null, ptr %49, align 8
  %50 = call ptr @new_avpl(ptr noundef @.str)
  %51 = load ptr, ptr %5, align 8
  %52 = getelementptr inbounds nuw %struct._mate_cfg_gog, ptr %51, i32 0, i32 5
  store ptr %50, ptr %52, align 8
  %53 = call ptr @g_hash_table_new(ptr noundef @g_str_hash, ptr noundef @g_str_equal)
  %54 = load ptr, ptr %5, align 8
  %55 = getelementptr inbounds nuw %struct._mate_cfg_gog, ptr %54, i32 0, i32 9
  store ptr %53, ptr %55, align 8
  %56 = load ptr, ptr %5, align 8
  %57 = getelementptr inbounds nuw %struct._mate_cfg_gog, ptr %56, i32 0, i32 10
  store i32 -1, ptr %57, align 8
  %58 = load ptr, ptr %5, align 8
  %59 = getelementptr inbounds nuw %struct._mate_cfg_gog, ptr %58, i32 0, i32 18
  store i32 -1, ptr %59, align 8
  %60 = load ptr, ptr %5, align 8
  %61 = getelementptr inbounds nuw %struct._mate_cfg_gog, ptr %60, i32 0, i32 19
  store i32 -1, ptr %61, align 4
  %62 = load ptr, ptr %5, align 8
  %63 = getelementptr inbounds nuw %struct._mate_cfg_gog, ptr %62, i32 0, i32 20
  store i32 -1, ptr %63, align 8
  %64 = load ptr, ptr %5, align 8
  %65 = getelementptr inbounds nuw %struct._mate_cfg_gog, ptr %64, i32 0, i32 21
  store i32 -1, ptr %65, align 4
  %66 = load ptr, ptr %5, align 8
  %67 = getelementptr inbounds nuw %struct._mate_cfg_gog, ptr %66, i32 0, i32 22
  store i32 -1, ptr %67, align 8
  %68 = load ptr, ptr %5, align 8
  %69 = getelementptr inbounds nuw %struct._mate_cfg_gog, ptr %68, i32 0, i32 11
  store i32 -1, ptr %69, align 4
  %70 = load ptr, ptr %5, align 8
  %71 = getelementptr inbounds nuw %struct._mate_cfg_gog, ptr %70, i32 0, i32 12
  store i32 -1, ptr %71, align 8
  %72 = load ptr, ptr %5, align 8
  %73 = getelementptr inbounds nuw %struct._mate_cfg_gog, ptr %72, i32 0, i32 13
  store i32 -1, ptr %73, align 4
  %74 = load ptr, ptr %5, align 8
  %75 = getelementptr inbounds nuw %struct._mate_cfg_gog, ptr %74, i32 0, i32 14
  store i32 -1, ptr %75, align 8
  %76 = load ptr, ptr %5, align 8
  %77 = getelementptr inbounds nuw %struct._mate_cfg_gog, ptr %76, i32 0, i32 15
  store i32 -1, ptr %77, align 4
  %78 = load ptr, ptr %5, align 8
  %79 = getelementptr inbounds nuw %struct._mate_cfg_gog, ptr %78, i32 0, i32 16
  store i32 -1, ptr %79, align 8
  %80 = load ptr, ptr %5, align 8
  %81 = getelementptr inbounds nuw %struct._mate_cfg_gog, ptr %80, i32 0, i32 17
  store i32 -1, ptr %81, align 4
  %82 = load ptr, ptr %3, align 8
  %83 = getelementptr inbounds nuw %struct._mate_config, ptr %82, i32 0, i32 8
  %84 = load ptr, ptr %83, align 8
  %85 = load ptr, ptr %5, align 8
  %86 = getelementptr inbounds nuw %struct._mate_cfg_gog, ptr %85, i32 0, i32 0
  %87 = load ptr, ptr %86, align 8
  %88 = load ptr, ptr %5, align 8
  %89 = call i32 @g_hash_table_insert(ptr noundef %84, ptr noundef %87, ptr noundef %88)
  %90 = load ptr, ptr %5, align 8
  call void @llvm.lifetime.end.p0(i64 8, ptr %5) #14
  ret ptr %90
}