; Function Attrs: null_pointer_is_valid sspstrong uwtable
define hidden noundef ptr @new_gogcfg(ptr noundef readonly captures(none) %0, ptr noundef %1) local_unnamed_addr #0 {
  %3 = tail call noalias dereferenceable_or_null(128) ptr @g_malloc(i64 noundef 128) #8
  %4 = tail call noalias ptr @g_strdup(ptr noundef %1)
  store ptr %4, ptr %3, align 8
  %5 = getelementptr inbounds nuw i8, ptr %3, i64 16
  store i32 0, ptr %5, align 8
  %6 = tail call ptr @g_hash_table_new(ptr noundef nonnull @g_direct_hash, ptr noundef nonnull @g_direct_equal)
  %7 = getelementptr inbounds nuw i8, ptr %3, i64 8
  store ptr %6, ptr %7, align 8
  %8 = getelementptr inbounds nuw i8, ptr %3, i64 24
  store ptr null, ptr %8, align 8
  %9 = tail call ptr @new_avpl(ptr noundef nonnull @.str)
  %10 = getelementptr inbounds nuw i8, ptr %3, i64 40
  store ptr %9, ptr %10, align 8
  %11 = tail call ptr @g_hash_table_new(ptr noundef nonnull @g_str_hash, ptr noundef nonnull @g_str_equal)
  %12 = getelementptr inbounds nuw i8, ptr %3, i64 64
  store ptr %11, ptr %12, align 8
  %13 = getelementptr inbounds nuw i8, ptr %3, i64 72
  %14 = getelementptr inbounds nuw i8, ptr %0, i64 64
  tail call void @llvm.memset.p0.i64(ptr noundef nonnull align 8 dereferenceable(52) %13, i8 -1, i64 52, i1 false)
  %15 = load ptr, ptr %14, align 8
  %16 = tail call i32 @g_hash_table_insert(ptr noundef %15, ptr noundef %4, ptr noundef %3)
  ret ptr %3
}